target datalayout = "e-m:e-p270:32:32-p271:32:32-p272:64:64-i64:64-i128:128-f80:128-n8:16:32:64-S128"
target triple = "x86_64-pc-linux-gnu"

%struct.SwsInternal = type { %struct.SwsContext, ptr, ptr, ptr, ptr, i32, [2 x ptr], i32, i32, ptr, i32, i32, i32, i32, i32, i32, i32, i32, i32, i32, i32, i32, i32, i32, i32, i32, i32, i32, ptr, ptr, %struct.RangeList, [3 x ptr], [2 x [4 x i32]], [2 x [4 x ptr]], i32, double, i32, ptr, ptr, i32, [2 x i32], i32, ptr, ptr, [256 x i32], [256 x i32], [256 x float], i32, i32, ptr, i32, ptr, ptr, ptr, ptr, ptr, ptr, ptr, ptr, i32, i32, i32, i32, i32, i32, ptr, ptr, i32, i32, i32, ptr, [8 x i8], [1280 x i32], [1280 x ptr], [1280 x ptr], [1280 x ptr], [176 x i32], [4 x ptr], i32, i32, i32, [4 x i32], [4 x i32], i32, i32, i32, i32, i32, i32, i32, i32, i32, i32, i64, i64, i64, i64, i64, i64, i64, i64, i64, i64, i64, [1024 x i32], [1024 x i32], i32, i64, i64, i64, i64, i64, [1024 x i32], i64, i64, [8 x i16], [8 x i32], ptr, ptr, i32, ptr, ptr, ptr, ptr, [3 x [4 x i16]], [3 x [4 x i16]], ptr, ptr, ptr, ptr, ptr, ptr, ptr, ptr, ptr, ptr, ptr, ptr, ptr, ptr, ptr, ptr, ptr, ptr, ptr, ptr, i32, i32, i64, i64, i32, ptr, i32, ptr, i32, i32, i32, i32, i32, ptr }
%struct.SwsContext = type { ptr, ptr, i32, [2 x double], i32, i32, i32, i32, i32, i32, i32, i32, i32, i32, i32, i32, i32, i32, i32, i32, i32 }
%struct.RangeList = type { ptr, i32, i32 }
%struct.AVPixFmtDescriptor = type { ptr, i8, i8, i8, i64, [4 x %struct.AVComponentDescriptor], ptr }
%struct.AVComponentDescriptor = type { i32, i32, i32, i32, i32 }

@.str.1 = private unnamed_addr constant [30 x i8] c"Assertion %s failed at %s:%d\0A\00", align 1
@.str.12 = private unnamed_addr constant [5 x i8] c"desc\00", align 1
@.str.13 = private unnamed_addr constant [30 x i8] c"libswscale/swscale_internal.h\00", align 1

; Function Attrs: alwaysinline nounwind uwtable
define internal i32 @isGray(i32 noundef %0) #3 {
  %2 = alloca i32, align 4
  %3 = alloca ptr, align 8
  store i32 %0, ptr %2, align 4, !tbaa !14
  call void @llvm.lifetime.start.p0(i64 8, ptr %3) #11
  %4 = load i32, ptr %2, align 4, !tbaa !14
  %5 = call ptr @av_pix_fmt_desc_get(i32 noundef %4)
  store ptr %5, ptr %3, align 8, !tbaa !83
  br label %6

6:                                                ; preds = %1
  %7 = load ptr, ptr %3, align 8, !tbaa !83
  %8 = icmp ne ptr %7, null
  br i1 %8, label %10, label %9

9:                                                ; preds = %6
  call void (ptr, i32, ptr, ...) @av_log(ptr noundef null, i32 noundef 0, ptr noundef @.str.1, ptr noundef @.str.12, ptr noundef @.str.13, i32 noundef 790)
  call void @abort() #12
  unreachable

10:                                               ; preds = %6
  br label %11

11:                                               ; preds = %10
  br label %12

12:                                               ; preds = %11
  %13 = load ptr, ptr %3, align 8, !tbaa !83
  %14 = getelementptr inbounds nuw %struct.AVPixFmtDescriptor, ptr %13, i32 0, i32 4
  %15 = load i64, ptr %14, align 8, !tbaa !87
  %16 = and i64 %15, 2
  %17 = icmp ne i64 %16, 0
  br i1 %17, label %36, label %18

18:                                               ; preds = %12
  %19 = load ptr, ptr %3, align 8, !tbaa !83
  %20 = getelementptr inbounds nuw %struct.AVPixFmtDescriptor, ptr %19, i32 0, i32 4
  %21 = load i64, ptr %20, align 8, !tbaa !87
  %22 = and i64 %21, 8
  %23 = icmp ne i64 %22, 0
  br i1 %23, label %36, label %24

24:                                               ; preds = %18
  %25 = load ptr, ptr %3, align 8, !tbaa !83
  %26 = getelementptr inbounds nuw %struct.AVPixFmtDescriptor, ptr %25, i32 0, i32 1
  %27 = load i8, ptr %26, align 8, !tbaa !89
  %28 = zext i8 %27 to i32
  %29 = icmp sle i32 %28, 2
  br i1 %29, label %30, label %36

30:                                               ; preds = %24
  %31 = load i32, ptr %2, align 4, !tbaa !14
  %32 = icmp ne i32 %31, 10
  br i1 %32, label %33, label %36

33:                                               ; preds = %30
  %34 = load i32, ptr %2, align 4, !tbaa !14
  %35 = icmp ne i32 %34, 9
  br label %36

36:                                               ; preds = %33, %30, %24, %18, %12
  %37 = phi i1 [ false, %30 ], [ false, %24 ], [ false, %18 ], [ false, %12 ], [ %35, %33 ]
  %38 = zext i1 %37 to i32
  call void @llvm.lifetime.end.p0(i64 8, ptr %3) #11
  ret i32 %38
}

; Function Attrs: cold nounwind optsize uwtable
define internal void @sws_init_swscale(ptr noundef %0) #8 {
  %2 = alloca ptr, align 8
  %3 = alloca i32, align 4
  store ptr %0, ptr %2, align 8, !tbaa !4
  call void @llvm.lifetime.start.p0(i64 4, ptr %3) #11
  %4 = load ptr, ptr %2, align 8, !tbaa !4
  %5 = getelementptr inbounds nuw %struct.SwsInternal, ptr %4, i32 0, i32 0
  %6 = getelementptr inbounds nuw %struct.SwsContext, ptr %5, i32 0, i32 12
  %7 = load i32, ptr %6, align 8, !tbaa !49
  store i32 %7, ptr %3, align 4, !tbaa !14
  %8 = load ptr, ptr %2, align 8, !tbaa !4
  %9 = load ptr, ptr %2, align 8, !tbaa !4
  %10 = getelementptr inbounds nuw %struct.SwsInternal, ptr %9, i32 0, i32 126
  %11 = load ptr, ptr %2, align 8, !tbaa !4
  %12 = getelementptr inbounds nuw %struct.SwsInternal, ptr %11, i32 0, i32 127
  %13 = load ptr, ptr %2, align 8, !tbaa !4
  %14 = getelementptr inbounds nuw %struct.SwsInternal, ptr %13, i32 0, i32 128
  %15 = load ptr, ptr %2, align 8, !tbaa !4
  %16 = getelementptr inbounds nuw %struct.SwsInternal, ptr %15, i32 0, i32 129
  %17 = load ptr, ptr %2, align 8, !tbaa !4
  %18 = getelementptr inbounds nuw %struct.SwsInternal, ptr %17, i32 0, i32 130
  %19 = load ptr, ptr %2, align 8, !tbaa !4
  %20 = getelementptr inbounds nuw %struct.SwsInternal, ptr %19, i32 0, i32 131
  %21 = load ptr, ptr %2, align 8, !tbaa !4
  %22 = getelementptr inbounds nuw %struct.SwsInternal, ptr %21, i32 0, i32 132
  call void @ff_sws_init_output_funcs(ptr noundef %8, ptr noundef %10, ptr noundef %12, ptr noundef %14, ptr noundef %16, ptr noundef %18, ptr noundef %20, ptr noundef %22)
  %23 = load ptr, ptr %2, align 8, !tbaa !4
  %24 = load ptr, ptr %2, align 8, !tbaa !4
  %25 = getelementptr inbounds nuw %struct.SwsInternal, ptr %24, i32 0, i32 134
  %26 = load ptr, ptr %2, align 8, !tbaa !4
  %27 = getelementptr inbounds nuw %struct.SwsInternal, ptr %26, i32 0, i32 135
  %28 = load ptr, ptr %2, align 8, !tbaa !4
  %29 = getelementptr inbounds nuw %struct.SwsInternal, ptr %28, i32 0, i32 136
  %30 = load ptr, ptr %2, align 8, !tbaa !4
  %31 = getelementptr inbounds nuw %struct.SwsInternal, ptr %30, i32 0, i32 137
  %32 = load ptr, ptr %2, align 8, !tbaa !4
  %33 = getelementptr inbounds nuw %struct.SwsInternal, ptr %32, i32 0, i32 138
  %34 = load ptr, ptr %2, align 8, !tbaa !4
  %35 = getelementptr inbounds nuw %struct.SwsInternal, ptr %34, i32 0, i32 139
  call void @ff_sws_init_input_funcs(ptr noundef %23, ptr noundef %25, ptr noundef %27, ptr noundef %29, ptr noundef %31, ptr noundef %33, ptr noundef %35)
  %36 = load ptr, ptr %2, align 8, !tbaa !4
  %37 = getelementptr inbounds nuw %struct.SwsInternal, ptr %36, i32 0, i32 21
  %38 = load i32, ptr %37, align 4, !tbaa !114
  %39 = icmp eq i32 %38, 8
  br i1 %39, label %40, label %68

40:                                               ; preds = %1
  %41 = load ptr, ptr %2, align 8, !tbaa !4
  %42 = getelementptr inbounds nuw %struct.SwsInternal, ptr %41, i32 0, i32 20
  %43 = load i32, ptr %42, align 16, !tbaa !101
  %44 = icmp sle i32 %43, 14
  br i1 %44, label %45, label %62

45:                                               ; preds = %40
  %46 = load ptr, ptr %2, align 8, !tbaa !4
  %47 = getelementptr inbounds nuw %struct.SwsInternal, ptr %46, i32 0, i32 143
  store ptr @hScale8To15_c, ptr %47, align 16, !tbaa !115
  %48 = load ptr, ptr %2, align 8, !tbaa !4
  %49 = getelementptr inbounds nuw %struct.SwsInternal, ptr %48, i32 0, i32 142
  store ptr @hScale8To15_c, ptr %49, align 8, !tbaa !116
  %50 = load ptr, ptr %2, align 8, !tbaa !4
  %51 = getelementptr inbounds nuw %struct.SwsInternal, ptr %50, i32 0, i32 0
  %52 = getelementptr inbounds nuw %struct.SwsContext, ptr %51, i32 0, i32 2
  %53 = load i32, ptr %52, align 16, !tbaa !35
  %54 = and i32 %53, 1
  %55 = icmp ne i32 %54, 0
  br i1 %55, label %56, label %61

56:                                               ; preds = %45
  %57 = load ptr, ptr %2, align 8, !tbaa !4
  %58 = getelementptr inbounds nuw %struct.SwsInternal, ptr %57, i32 0, i32 140
  store ptr @ff_hyscale_fast_c, ptr %58, align 8, !tbaa !117
  %59 = load ptr, ptr %2, align 8, !tbaa !4
  %60 = getelementptr inbounds nuw %struct.SwsInternal, ptr %59, i32 0, i32 141
  store ptr @ff_hcscale_fast_c, ptr %60, align 16, !tbaa !118
  br label %61

61:                                               ; preds = %56, %45
  br label %67

62:                                               ; preds = %40
  %63 = load ptr, ptr %2, align 8, !tbaa !4
  %64 = getelementptr inbounds nuw %struct.SwsInternal, ptr %63, i32 0, i32 143
  store ptr @hScale8To19_c, ptr %64, align 16, !tbaa !115
  %65 = load ptr, ptr %2, align 8, !tbaa !4
  %66 = getelementptr inbounds nuw %struct.SwsInternal, ptr %65, i32 0, i32 142
  store ptr @hScale8To19_c, ptr %66, align 8, !tbaa !116
  br label %67

67:                                               ; preds = %62, %61
  br label %78

68:                                               ; preds = %1
  %69 = load ptr, ptr %2, align 8, !tbaa !4
  %70 = getelementptr inbounds nuw %struct.SwsInternal, ptr %69, i32 0, i32 20
  %71 = load i32, ptr %70, align 16, !tbaa !101
  %72 = icmp sgt i32 %71, 14
  %73 = select i1 %72, ptr @hScale16To19_c, ptr @hScale16To15_c
  %74 = load ptr, ptr %2, align 8, !tbaa !4
  %75 = getelementptr inbounds nuw %struct.SwsInternal, ptr %74, i32 0, i32 143
  store ptr %73, ptr %75, align 16, !tbaa !115
  %76 = load ptr, ptr %2, align 8, !tbaa !4
  %77 = getelementptr inbounds nuw %struct.SwsInternal, ptr %76, i32 0, i32 142
  store ptr %73, ptr %77, align 8, !tbaa !116
  br label %78

78:                                               ; preds = %68, %67
  %79 = load ptr, ptr %2, align 8, !tbaa !4
  call void @ff_sws_init_range_convert(ptr noundef %79) #14
  %80 = load i32, ptr %3, align 4, !tbaa !14
  %81 = call i32 @isGray(i32 noundef %80)
  %82 = icmp ne i32 %81, 0
  br i1 %82, label %99, label %83

83:                                               ; preds = %78
  %84 = load ptr, ptr %2, align 8, !tbaa !4
  %85 = getelementptr inbounds nuw %struct.SwsInternal, ptr %84, i32 0, i32 0
  %86 = getelementptr inbounds nuw %struct.SwsContext, ptr %85, i32 0, i32 13
  %87 = load i32, ptr %86, align 4, !tbaa !34
  %88 = call i32 @isGray(i32 noundef %87)
  %89 = icmp ne i32 %88, 0
  br i1 %89, label %99, label %90

90:                                               ; preds = %83
  %91 = load i32, ptr %3, align 4, !tbaa !14
  %92 = icmp eq i32 %91, 10
  br i1 %92, label %99, label %93

93:                                               ; preds = %90
  %94 = load i32, ptr %3, align 4, !tbaa !14
  %95 = icmp eq i32 %94, 9
  br i1 %95, label %99, label %96

96:                                               ; preds = %93
  %97 = load ptr, ptr %2, align 8, !tbaa !4
  %98 = getelementptr inbounds nuw %struct.SwsInternal, ptr %97, i32 0, i32 150
  store i32 1, ptr %98, align 16, !tbaa !119
  br label %99

99:                                               ; preds = %96, %93, %90, %83, %78
  call void @llvm.lifetime.end.p0(i64 4, ptr %3) #11
  ret void
}