; Function Attrs: cold nounwind optsize uwtable
define internal fastcc void @sws_init_swscale(ptr noundef %0) unnamed_addr #5 {
  %2 = getelementptr inbounds nuw i8, ptr %0, i64 72
  %3 = load i32, ptr %2, align 8, !tbaa !43
  %4 = getelementptr inbounds nuw i8, ptr %0, i64 52968
  %5 = getelementptr inbounds nuw i8, ptr %0, i64 52976
  %6 = getelementptr inbounds nuw i8, ptr %0, i64 52984
  %7 = getelementptr inbounds nuw i8, ptr %0, i64 52992
  %8 = getelementptr inbounds nuw i8, ptr %0, i64 53000
  %9 = getelementptr inbounds nuw i8, ptr %0, i64 53008
  %10 = getelementptr inbounds nuw i8, ptr %0, i64 53016
  tail call void @ff_sws_init_output_funcs(ptr noundef %0, ptr noundef nonnull %4, ptr noundef nonnull %5, ptr noundef nonnull %6, ptr noundef nonnull %7, ptr noundef nonnull %8, ptr noundef nonnull %9, ptr noundef nonnull %10) #11
  %11 = getelementptr inbounds nuw i8, ptr %0, i64 53032
  %12 = getelementptr inbounds nuw i8, ptr %0, i64 53040
  %13 = getelementptr inbounds nuw i8, ptr %0, i64 53048
  %14 = getelementptr inbounds nuw i8, ptr %0, i64 53056
  %15 = getelementptr inbounds nuw i8, ptr %0, i64 53064
  %16 = getelementptr inbounds nuw i8, ptr %0, i64 53072
  tail call void @ff_sws_init_input_funcs(ptr noundef %0, ptr noundef nonnull %11, ptr noundef nonnull %12, ptr noundef nonnull %13, ptr noundef nonnull %14, ptr noundef nonnull %15, ptr noundef nonnull %16) #11
  %17 = getelementptr inbounds nuw i8, ptr %0, i64 228
  %18 = load i32, ptr %17, align 4, !tbaa !104
  %19 = icmp eq i32 %18, 8
  %20 = getelementptr inbounds nuw i8, ptr %0, i64 224
  %21 = load i32, ptr %20, align 16, !tbaa !90
  br i1 %19, label %22, label %34

22:                                               ; preds = %1
  %23 = icmp slt i32 %21, 15
  %24 = getelementptr inbounds nuw i8, ptr %0, i64 53104
  %25 = getelementptr inbounds nuw i8, ptr %0, i64 53096
  br i1 %23, label %26, label %33

26:                                               ; preds = %22
  store ptr @hScale8To15_c, ptr %24, align 16, !tbaa !105
  store ptr @hScale8To15_c, ptr %25, align 8, !tbaa !106
  %27 = getelementptr inbounds nuw i8, ptr %0, i64 16
  %28 = load i32, ptr %27, align 16, !tbaa !29
  %29 = and i32 %28, 1
  %.not = icmp eq i32 %29, 0
  br i1 %.not, label %39, label %30

30:                                               ; preds = %26
  %31 = getelementptr inbounds nuw i8, ptr %0, i64 53080
  store ptr @ff_hyscale_fast_c, ptr %31, align 8, !tbaa !107
  %32 = getelementptr inbounds nuw i8, ptr %0, i64 53088
  store ptr @ff_hcscale_fast_c, ptr %32, align 16, !tbaa !108
  br label %39

33:                                               ; preds = %22
  store ptr @hScale8To19_c, ptr %24, align 16, !tbaa !105
  store ptr @hScale8To19_c, ptr %25, align 8, !tbaa !106
  br label %39

34:                                               ; preds = %1
  %35 = icmp sgt i32 %21, 14
  %36 = select i1 %35, ptr @hScale16To19_c, ptr @hScale16To15_c
  %37 = getelementptr inbounds nuw i8, ptr %0, i64 53104
  store ptr %36, ptr %37, align 16, !tbaa !105
  %38 = getelementptr inbounds nuw i8, ptr %0, i64 53096
  store ptr %36, ptr %38, align 8, !tbaa !106
  br label %39

39:                                               ; preds = %33, %30, %26, %34
  tail call void @ff_sws_init_range_convert(ptr noundef nonnull %0) #13
  %40 = tail call ptr @av_pix_fmt_desc_get(i32 noundef %3) #11
  %.not.i = icmp eq ptr %40, null
  br i1 %.not.i, label %41, label %42

41:                                               ; preds = %39
  tail call void (ptr, i32, ptr, ...) @av_log(ptr noundef null, i32 noundef 0, ptr noundef nonnull @.str.1, ptr noundef nonnull @.str.12, ptr noundef nonnull @.str.13, i32 noundef 790) #11
  tail call void @abort() #12
  unreachable

42:                                               ; preds = %39
  %43 = getelementptr inbounds nuw i8, ptr %40, i64 16
  %44 = load i64, ptr %43, align 8, !tbaa !57
  %45 = and i64 %44, 10
  %or.cond10.i = icmp eq i64 %45, 0
  br i1 %or.cond10.i, label %46, label %isGray.exit.thread

46:                                               ; preds = %42
  %47 = getelementptr inbounds nuw i8, ptr %40, i64 8
  %48 = load i8, ptr %47, align 8, !tbaa !55
  %49 = icmp ugt i8 %48, 2
  %50 = add i32 %3, -9
  %51 = icmp ult i32 %50, 2
  %or.cond = or i1 %51, %49
  br i1 %or.cond, label %isGray.exit.thread, label %71

isGray.exit.thread:                               ; preds = %42, %46
  %52 = getelementptr inbounds nuw i8, ptr %0, i64 76
  %53 = load i32, ptr %52, align 4, !tbaa !28
  %54 = tail call ptr @av_pix_fmt_desc_get(i32 noundef %53) #11
  %.not.i37 = icmp eq ptr %54, null
  br i1 %.not.i37, label %55, label %56

55:                                               ; preds = %isGray.exit.thread
  tail call void (ptr, i32, ptr, ...) @av_log(ptr noundef null, i32 noundef 0, ptr noundef nonnull @.str.1, ptr noundef nonnull @.str.12, ptr noundef nonnull @.str.13, i32 noundef 790) #11
  tail call void @abort() #12
  unreachable

56:                                               ; preds = %isGray.exit.thread
  %57 = getelementptr inbounds nuw i8, ptr %54, i64 16
  %58 = load i64, ptr %57, align 8, !tbaa !57
  %59 = and i64 %58, 10
  %or.cond10.i40 = icmp eq i64 %59, 0
  br i1 %or.cond10.i40, label %60, label %isGray.exit42

60:                                               ; preds = %56
  %61 = getelementptr inbounds nuw i8, ptr %54, i64 8
  %62 = load i8, ptr %61, align 8, !tbaa !55
  %63 = icmp ult i8 %62, 3
  %64 = add i32 %53, -11
  %65 = icmp ult i32 %64, -2
  %spec.select = and i1 %65, %63
  br label %isGray.exit42

isGray.exit42:                                    ; preds = %60, %56
  %66 = phi i1 [ false, %56 ], [ %spec.select, %60 ]
  %67 = add i32 %3, -9
  %68 = icmp ult i32 %67, 2
  %or.cond3 = select i1 %66, i1 true, i1 %68
  br i1 %or.cond3, label %71, label %69

69:                                               ; preds = %isGray.exit42
  %70 = getelementptr inbounds nuw i8, ptr %0, i64 53152
  store i32 1, ptr %70, align 16, !tbaa !109
  br label %71

71:                                               ; preds = %46, %69, %isGray.exit42
  ret void
}